; ModuleID = '24/157.c'
source_filename = "24/157.c"
target datalayout = "e-m:e-p270:32:32-p271:32:32-p272:64:64-i64:64-f80:128-n8:16:32:64-S128"
target triple = "x86_64-pc-linux-gnu"

@.str = private unnamed_addr constant [2 x i8] c" \00", align 1
@.str.1 = private unnamed_addr constant [4 x i8] c"%s\0A\00", align 1

; Function Attrs: noinline nounwind uwtable
define dso_local i32 @main() #0 {
  %1 = alloca i32, align 4
  %2 = alloca [1000 x i8], align 16
  %3 = alloca [100 x i8], align 16
  %4 = alloca [100 x i8], align 16
  %5 = alloca i8*, align 8
  %6 = alloca i32, align 4
  %7 = alloca i32, align 4
  %8 = alloca i32, align 4
  %9 = alloca i32, align 4
  %10 = alloca i8, align 1
  store i32 0, i32* %1, align 4
  %11 = bitcast [1000 x i8]* %2 to i8*
  call void @llvm.memset.p0i8.i64(i8* align 16 %11, i8 0, i64 1000, i1 false)
  %12 = bitcast [100 x i8]* %3 to i8*
  call void @llvm.memset.p0i8.i64(i8* align 16 %12, i8 0, i64 100, i1 false)
  %13 = bitcast [100 x i8]* %4 to i8*
  call void @llvm.memset.p0i8.i64(i8* align 16 %13, i8 0, i64 100, i1 false)
  store i32 0, i32* %6, align 4
  store i32 10000, i32* %7, align 4
  store i32 0, i32* %8, align 4
  store i32 0, i32* %9, align 4
  %14 = call i32 @getchar()
  %15 = trunc i32 %14 to i8
  store i8 %15, i8* %10, align 1
  br label %16

16:                                               ; preds = %20, %0
  %17 = load i8, i8* %10, align 1
  %18 = sext i8 %17 to i32
  %19 = icmp ne i32 %18, 10
  br i1 %19, label %20, label %29

20:                                               ; preds = %16
  %21 = load i8, i8* %10, align 1
  %22 = load i32, i32* %9, align 4
  %23 = sext i32 %22 to i64
  %24 = getelementptr inbounds [1000 x i8], [1000 x i8]* %2, i64 0, i64 %23
  store i8 %21, i8* %24, align 1
  %25 = load i32, i32* %9, align 4
  %26 = add nsw i32 %25, 1
  store i32 %26, i32* %9, align 4
  %27 = call i32 @getchar()
  %28 = trunc i32 %27 to i8
  store i8 %28, i8* %10, align 1
  br label %16

29:                                               ; preds = %16
  %30 = load i32, i32* %9, align 4
  %31 = sext i32 %30 to i64
  %32 = getelementptr inbounds [1000 x i8], [1000 x i8]* %2, i64 0, i64 %31
  store i8 0, i8* %32, align 1
  %33 = getelementptr inbounds [1000 x i8], [1000 x i8]* %2, i64 0, i64 0
  %34 = call i64 @strlen(i8* %33) #5
  %35 = icmp eq i64 %34, 0
  br i1 %35, label %36, label %37

36:                                               ; preds = %29
  store i32 0, i32* %1, align 4
  br label %71

37:                                               ; preds = %29
  %38 = getelementptr inbounds [1000 x i8], [1000 x i8]* %2, i64 0, i64 0
  %39 = call i8* @strtok(i8* %38, i8* getelementptr inbounds ([2 x i8], [2 x i8]* @.str, i64 0, i64 0)) #6
  store i8* %39, i8** %5, align 8
  br label %40

40:                                               ; preds = %64, %37
  %41 = load i8*, i8** %5, align 8
  %42 = icmp ne i8* %41, null
  br i1 %42, label %43, label %66

43:                                               ; preds = %40
  %44 = load i8*, i8** %5, align 8
  %45 = call i64 @strlen(i8* %44) #5
  %46 = trunc i64 %45 to i32
  store i32 %46, i32* %8, align 4
  %47 = load i32, i32* %8, align 4
  %48 = load i32, i32* %6, align 4
  %49 = icmp sgt i32 %47, %48
  br i1 %49, label %50, label %55

50:                                               ; preds = %43
  %51 = load i32, i32* %8, align 4
  store i32 %51, i32* %6, align 4
  %52 = getelementptr inbounds [100 x i8], [100 x i8]* %3, i64 0, i64 0
  %53 = load i8*, i8** %5, align 8
  %54 = call i8* @strcpy(i8* %52, i8* %53) #6
  br label %55

55:                                               ; preds = %50, %43
  %56 = load i32, i32* %8, align 4
  %57 = load i32, i32* %7, align 4
  %58 = icmp slt i32 %56, %57
  br i1 %58, label %59, label %64

59:                                               ; preds = %55
  %60 = load i32, i32* %8, align 4
  store i32 %60, i32* %7, align 4
  %61 = getelementptr inbounds [100 x i8], [100 x i8]* %4, i64 0, i64 0
  %62 = load i8*, i8** %5, align 8
  %63 = call i8* @strcpy(i8* %61, i8* %62) #6
  br label %64

64:                                               ; preds = %59, %55
  %65 = call i8* @strtok(i8* null, i8* getelementptr inbounds ([2 x i8], [2 x i8]* @.str, i64 0, i64 0)) #6
  store i8* %65, i8** %5, align 8
  br label %40

66:                                               ; preds = %40
  %67 = getelementptr inbounds [100 x i8], [100 x i8]* %3, i64 0, i64 0
  %68 = call i32 (i8*, ...) @printf(i8* getelementptr inbounds ([4 x i8], [4 x i8]* @.str.1, i64 0, i64 0), i8* %67)
  %69 = getelementptr inbounds [100 x i8], [100 x i8]* %4, i64 0, i64 0
  %70 = call i32 (i8*, ...) @printf(i8* getelementptr inbounds ([4 x i8], [4 x i8]* @.str.1, i64 0, i64 0), i8* %69)
  store i32 0, i32* %1, align 4
  br label %71

71:                                               ; preds = %66, %36
  %72 = load i32, i32* %1, align 4
  ret i32 %72
}

; Function Attrs: argmemonly nounwind willreturn
declare void @llvm.memset.p0i8.i64(i8* nocapture writeonly, i8, i64, i1 immarg) #1

declare dso_local i32 @getchar() #2

; Function Attrs: nounwind readonly
declare dso_local i64 @strlen(i8*) #3

; Function Attrs: nounwind
declare dso_local i8* @strtok(i8*, i8*) #4

; Function Attrs: nounwind
declare dso_local i8* @strcpy(i8*, i8*) #4

declare dso_local i32 @printf(i8*, ...) #2


!llvm.module.flags = !{!0}
!llvm.ident = !{!1}

!0 = !{i32 1, !"wchar_size", i32 4}
!1 = !{!"clang version 10.0.0-4ubuntu1 "}
