; ModuleID = 'source-C-CXX/23/157.c'
source_filename = "source-C-CXX/23/157.c"
target datalayout = "e-m:e-p270:32:32-p271:32:32-p272:64:64-i64:64-f80:128-n8:16:32:64-S128"
target triple = "x86_64-pc-linux-gnu"

%struct._IO_FILE = type { i32, i8*, i8*, i8*, i8*, i8*, i8*, i8*, i8*, i8*, i8*, i8*, %struct._IO_marker*, %struct._IO_FILE*, i32, i32, i64, i16, i8, [1 x i8], i8*, i64, %struct._IO_codecvt*, %struct._IO_wide_data*, %struct._IO_FILE*, i8*, i64, i32, [20 x i8] }
%struct._IO_marker = type opaque
%struct._IO_codecvt = type opaque
%struct._IO_wide_data = type opaque

@.str = private unnamed_addr constant [2 x i8] c" \00", align 1
@stdin = external local_unnamed_addr global %struct._IO_FILE*, align 8

; Function Attrs: nofree nounwind sspstrong uwtable
define dso_local i32 @main() local_unnamed_addr #0 {
  %1 = alloca [1000 x i8], align 16
  %2 = alloca [100 x i8], align 16
  %3 = alloca [100 x i8], align 16
  %4 = getelementptr inbounds [1000 x i8], [1000 x i8]* %1, i64 0, i64 0
  call void @llvm.lifetime.start.p0i8(i64 1000, i8* nonnull %4) #8
  call void @llvm.memset.p0i8.i64(i8* noundef nonnull align 16 dereferenceable(1000) %4, i8 0, i64 1000, i1 false)
  %5 = getelementptr inbounds [100 x i8], [100 x i8]* %2, i64 0, i64 0
  call void @llvm.lifetime.start.p0i8(i64 100, i8* nonnull %5) #8
  call void @llvm.memset.p0i8.i64(i8* noundef nonnull align 16 dereferenceable(100) %5, i8 0, i64 100, i1 false)
  %6 = getelementptr inbounds [100 x i8], [100 x i8]* %3, i64 0, i64 0
  call void @llvm.lifetime.start.p0i8(i64 100, i8* nonnull %6) #8
  call void @llvm.memset.p0i8.i64(i8* noundef nonnull align 16 dereferenceable(100) %6, i8 0, i64 100, i1 false)
  %7 = load %struct._IO_FILE*, %struct._IO_FILE** @stdin, align 8, !tbaa !5
  %8 = tail call i32 @getc(%struct._IO_FILE* %7) #8
  %9 = and i32 %8, 255
  %10 = icmp eq i32 %9, 10
  br i1 %10, label %23, label %11

11:                                               ; preds = %0, %11
  %12 = phi i64 [ %16, %11 ], [ 0, %0 ]
  %13 = phi i32 [ %18, %11 ], [ %8, %0 ]
  %14 = trunc i32 %13 to i8
  %15 = getelementptr inbounds [1000 x i8], [1000 x i8]* %1, i64 0, i64 %12
  store i8 %14, i8* %15, align 1, !tbaa !9
  %16 = add nuw i64 %12, 1
  %17 = load %struct._IO_FILE*, %struct._IO_FILE** @stdin, align 8, !tbaa !5
  %18 = tail call i32 @getc(%struct._IO_FILE* %17) #8
  %19 = and i32 %18, 255
  %20 = icmp eq i32 %19, 10
  br i1 %20, label %21, label %11, !llvm.loop !10

21:                                               ; preds = %11
  %22 = and i64 %16, 4294967295
  br label %23

23:                                               ; preds = %21, %0
  %24 = phi i64 [ 0, %0 ], [ %22, %21 ]
  %25 = getelementptr inbounds [1000 x i8], [1000 x i8]* %1, i64 0, i64 %24
  store i8 0, i8* %25, align 1, !tbaa !9
  %26 = load i8, i8* %4, align 16
  %27 = icmp eq i8 %26, 0
  br i1 %27, label %52, label %28

28:                                               ; preds = %23
  %29 = call i8* @strtok(i8* nonnull %4, i8* getelementptr inbounds ([2 x i8], [2 x i8]* @.str, i64 0, i64 0)) #8
  %30 = icmp eq i8* %29, null
  br i1 %30, label %49, label %31

31:                                               ; preds = %28, %45
  %32 = phi i32 [ %46, %45 ], [ 10000, %28 ]
  %33 = phi i32 [ %41, %45 ], [ 0, %28 ]
  %34 = phi i8* [ %47, %45 ], [ %29, %28 ]
  %35 = call i64 @strlen(i8* noundef nonnull %34) #9
  %36 = trunc i64 %35 to i32
  %37 = icmp slt i32 %33, %36
  br i1 %37, label %38, label %40

38:                                               ; preds = %31
  %39 = call i8* @strcpy(i8* noundef nonnull %5, i8* noundef nonnull %34) #8
  br label %40

40:                                               ; preds = %38, %31
  %41 = phi i32 [ %36, %38 ], [ %33, %31 ]
  %42 = icmp sgt i32 %32, %36
  br i1 %42, label %43, label %45

43:                                               ; preds = %40
  %44 = call i8* @strcpy(i8* noundef nonnull %6, i8* noundef nonnull %34) #8
  br label %45

45:                                               ; preds = %43, %40
  %46 = phi i32 [ %36, %43 ], [ %32, %40 ]
  %47 = call i8* @strtok(i8* null, i8* getelementptr inbounds ([2 x i8], [2 x i8]* @.str, i64 0, i64 0)) #8
  %48 = icmp eq i8* %47, null
  br i1 %48, label %49, label %31, !llvm.loop !12

49:                                               ; preds = %45, %28
  %50 = call i32 @puts(i8* nonnull %5)
  %51 = call i32 @puts(i8* nonnull %6)
  br label %52

52:                                               ; preds = %23, %49
  call void @llvm.lifetime.end.p0i8(i64 100, i8* nonnull %6) #8
  call void @llvm.lifetime.end.p0i8(i64 100, i8* nonnull %5) #8
  call void @llvm.lifetime.end.p0i8(i64 1000, i8* nonnull %4) #8
  ret i32 0
}

; Function Attrs: argmemonly mustprogress nofree nosync nounwind willreturn
declare void @llvm.lifetime.start.p0i8(i64 immarg, i8* nocapture) #1

; Function Attrs: argmemonly mustprogress nofree nounwind willreturn writeonly
declare void @llvm.memset.p0i8.i64(i8* nocapture writeonly, i8, i64, i1 immarg) #2

; Function Attrs: argmemonly mustprogress nofree nounwind readonly willreturn
declare i64 @strlen(i8* nocapture) local_unnamed_addr #3

; Function Attrs: mustprogress nofree nounwind willreturn
declare i8* @strtok(i8*, i8* nocapture readonly) local_unnamed_addr #4

; Function Attrs: argmemonly mustprogress nofree nounwind willreturn
declare i8* @strcpy(i8* noalias returned writeonly, i8* noalias nocapture readonly) local_unnamed_addr #5

; Function Attrs: argmemonly mustprogress nofree nosync nounwind willreturn
declare void @llvm.lifetime.end.p0i8(i64 immarg, i8* nocapture) #1

; Function Attrs: nofree nounwind
declare noundef i32 @getc(%struct._IO_FILE* nocapture noundef) local_unnamed_addr #6

; Function Attrs: nofree nounwind
declare noundef i32 @puts(i8* nocapture noundef readonly) local_unnamed_addr #7


!llvm.module.flags = !{!0, !1, !2, !3}
!llvm.ident = !{!4}

!0 = !{i32 1, !"wchar_size", i32 4}
!1 = !{i32 7, !"PIC Level", i32 2}
!2 = !{i32 7, !"PIE Level", i32 2}
!3 = !{i32 7, !"uwtable", i32 1}
!4 = !{!"clang version 13.0.0"}
!5 = !{!6, !6, i64 0}
!6 = !{!"any pointer", !7, i64 0}
!7 = !{!"omnipotent char", !8, i64 0}
!8 = !{!"Simple C/C++ TBAA"}
!9 = !{!7, !7, i64 0}
!10 = distinct !{!10, !11}
!11 = !{!"llvm.loop.mustprogress"}
!12 = distinct !{!12, !11}
